target datalayout = "e-m:e-p270:32:32-p271:32:32-p272:64:64-i64:64-i128:128-f80:128-n8:16:32:64-S128"
target triple = "x86_64-unknown-linux-gnu"

%"class.datalog::hashtable_table" = type { %"class.datalog::table_base.base", [4 x i8], %class.hashtable }
%"class.datalog::table_base.base" = type { %"class.datalog::tr_infrastructure<datalog::table_traits>::base_ancestor.base" }
%"class.datalog::tr_infrastructure<datalog::table_traits>::base_ancestor.base" = type <{ ptr, ptr, %"class.datalog::table_signature", i32 }>
%"class.datalog::table_signature" = type <{ %"class.datalog::tr_infrastructure<datalog::table_traits>::signature_base", i32, [4 x i8] }>
%"class.datalog::tr_infrastructure<datalog::table_traits>::signature_base" = type { %class.svector }
%class.svector = type { %class.vector }
%class.vector = type { ptr }
%class.hashtable = type { %class.core_hashtable.base, [4 x i8] }
%class.core_hashtable.base = type <{ ptr, i32, i32, i32 }>
%"class.datalog::table_base::iterator" = type { %class.ref }
%class.ref = type { ptr }
%"class.datalog::hashtable_table::our_iterator_core" = type { %"class.datalog::table_base::iterator_core.base", ptr, %"class.core_hashtable<default_hash_entry<svector<unsigned long>>, datalog::svector_hash_proc<uint64_hash>, datalog::vector_eq_proc<svector<unsigned long>>>::iterator", %"class.core_hashtable<default_hash_entry<svector<unsigned long>>, datalog::svector_hash_proc<uint64_hash>, datalog::vector_eq_proc<svector<unsigned long>>>::iterator", %"class.datalog::hashtable_table::our_iterator_core::our_row" }
%"class.datalog::table_base::iterator_core.base" = type <{ ptr, i32 }>
%"class.core_hashtable<default_hash_entry<svector<unsigned long>>, datalog::svector_hash_proc<uint64_hash>, datalog::vector_eq_proc<svector<unsigned long>>>::iterator" = type { ptr, ptr }
%"class.datalog::hashtable_table::our_iterator_core::our_row" = type { %"class.datalog::table_base::row_interface", ptr }
%"class.datalog::table_base::row_interface" = type { ptr, ptr }
%class.core_hashtable = type <{ ptr, i32, i32, i32, [4 x i8] }>
%class.default_hash_entry = type { i32, i32, %class.svector }
%"class.datalog::table_base::iterator_core" = type <{ ptr, i32, [4 x i8] }>

@_ZTVN7datalog10table_base13row_interfaceE = external unnamed_addr constant { [9 x ptr] }, align 8

; Function Attrs: mustprogress nounwind uwtable
define linkonce_odr hidden void @_ZN7datalog10table_base13iterator_core7inc_refEv(ptr noundef nonnull align 8 dereferenceable(12) %this) #5 comdat align 2 {
entry:
  %this.addr = alloca ptr, align 8
  store ptr %this, ptr %this.addr, align 8
  %this1 = load ptr, ptr %this.addr, align 8
  %m_ref_cnt = getelementptr inbounds %"class.datalog::table_base::iterator_core", ptr %this1, i32 0, i32 1
  %0 = load i32, ptr %m_ref_cnt, align 8
  %inc = add i32 %0, 1
  store i32 %inc, ptr %m_ref_cnt, align 8
  ret void
}

; Function Attrs: mustprogress nounwind uwtable
define linkonce_odr hidden noundef zeroext i1 @_ZNK18default_hash_entryI7svectorImjEE7is_usedEv(ptr noundef nonnull align 8 dereferenceable(16) %this) #5 comdat align 2 {
entry:
  %this.addr = alloca ptr, align 8
  store ptr %this, ptr %this.addr, align 8
  %this1 = load ptr, ptr %this.addr, align 8
  %m_state = getelementptr inbounds %class.default_hash_entry, ptr %this1, i32 0, i32 1
  %0 = load i32, ptr %m_state, align 4
  %cmp = icmp eq i32 %0, 2
  ret i1 %cmp
}

; Function Attrs: mustprogress uwtable
define linkonce_odr hidden void @_ZN3refIN7datalog10table_base13iterator_coreEE7inc_refEv(ptr noundef nonnull align 8 dereferenceable(8) %this) #4 comdat align 2 {
entry:
  %this.addr = alloca ptr, align 8
  store ptr %this, ptr %this.addr, align 8
  %this1 = load ptr, ptr %this.addr, align 8
  %m_ptr = getelementptr inbounds %class.ref, ptr %this1, i32 0, i32 0
  %0 = load ptr, ptr %m_ptr, align 8
  %tobool = icmp ne ptr %0, null
  br i1 %tobool, label %if.then, label %if.end

if.then:                                          ; preds = %entry
  %m_ptr2 = getelementptr inbounds %class.ref, ptr %this1, i32 0, i32 0
  %1 = load ptr, ptr %m_ptr2, align 8
  call void @_ZN7datalog10table_base13iterator_core7inc_refEv(ptr noundef nonnull align 8 dereferenceable(12) %1)
  br label %if.end

if.end:                                           ; preds = %if.then, %entry
  ret void
}

; Function Attrs: mustprogress uwtable
define linkonce_odr hidden void @_ZN14core_hashtableI18default_hash_entryI7svectorImjEEN7datalog17svector_hash_procI11uint64_hashEENS4_14vector_eq_procIS2_EEE8iterator12move_to_usedEv(ptr noundef nonnull align 8 dereferenceable(16) %this) #4 comdat align 2 {
entry:
  %this.addr = alloca ptr, align 8
  store ptr %this, ptr %this.addr, align 8
  %this1 = load ptr, ptr %this.addr, align 8
  br label %while.cond

while.cond:                                       ; preds = %while.body, %entry
  %m_curr = getelementptr inbounds %"class.core_hashtable<default_hash_entry<svector<unsigned long>>, datalog::svector_hash_proc<uint64_hash>, datalog::vector_eq_proc<svector<unsigned long>>>::iterator", ptr %this1, i32 0, i32 0
  %0 = load ptr, ptr %m_curr, align 8
  %m_end = getelementptr inbounds %"class.core_hashtable<default_hash_entry<svector<unsigned long>>, datalog::svector_hash_proc<uint64_hash>, datalog::vector_eq_proc<svector<unsigned long>>>::iterator", ptr %this1, i32 0, i32 1
  %1 = load ptr, ptr %m_end, align 8
  %cmp = icmp ne ptr %0, %1
  br i1 %cmp, label %land.rhs, label %land.end

land.rhs:                                         ; preds = %while.cond
  %m_curr2 = getelementptr inbounds %"class.core_hashtable<default_hash_entry<svector<unsigned long>>, datalog::svector_hash_proc<uint64_hash>, datalog::vector_eq_proc<svector<unsigned long>>>::iterator", ptr %this1, i32 0, i32 0
  %2 = load ptr, ptr %m_curr2, align 8
  %call = call noundef zeroext i1 @_ZNK18default_hash_entryI7svectorImjEE7is_usedEv(ptr noundef nonnull align 8 dereferenceable(16) %2)
  %lnot = xor i1 %call, true
  br label %land.end

land.end:                                         ; preds = %land.rhs, %while.cond
  %3 = phi i1 [ false, %while.cond ], [ %lnot, %land.rhs ]
  br i1 %3, label %while.body, label %while.end

while.body:                                       ; preds = %land.end
  %m_curr3 = getelementptr inbounds %"class.core_hashtable<default_hash_entry<svector<unsigned long>>, datalog::svector_hash_proc<uint64_hash>, datalog::vector_eq_proc<svector<unsigned long>>>::iterator", ptr %this1, i32 0, i32 0
  %4 = load ptr, ptr %m_curr3, align 8
  %incdec.ptr = getelementptr inbounds %class.default_hash_entry, ptr %4, i32 1
  store ptr %incdec.ptr, ptr %m_curr3, align 8
  br label %while.cond, !llvm.loop !17

while.end:                                        ; preds = %land.end
  ret void
}

; Function Attrs: mustprogress uwtable
define linkonce_odr hidden void @_ZN3refIN7datalog10table_base13iterator_coreEEC2EPS2_(ptr noundef nonnull align 8 dereferenceable(8) %this, ptr noundef %ptr) unnamed_addr #4 comdat align 2 {
entry:
  %this.addr = alloca ptr, align 8
  %ptr.addr = alloca ptr, align 8
  store ptr %this, ptr %this.addr, align 8
  store ptr %ptr, ptr %ptr.addr, align 8
  %this1 = load ptr, ptr %this.addr, align 8
  %m_ptr = getelementptr inbounds %class.ref, ptr %this1, i32 0, i32 0
  %0 = load ptr, ptr %ptr.addr, align 8
  store ptr %0, ptr %m_ptr, align 8
  call void @_ZN3refIN7datalog10table_base13iterator_coreEE7inc_refEv(ptr noundef nonnull align 8 dereferenceable(8) %this1)
  ret void
}

; Function Attrs: mustprogress nounwind uwtable
define linkonce_odr hidden void @_ZN7datalog10table_base13row_interfaceC2ERKS0_(ptr noundef nonnull align 8 dereferenceable(16) %this, ptr noundef nonnull align 8 dereferenceable(36) %parent_table) unnamed_addr #5 comdat align 2 {
entry:
  %this.addr = alloca ptr, align 8
  %parent_table.addr = alloca ptr, align 8
  store ptr %this, ptr %this.addr, align 8
  store ptr %parent_table, ptr %parent_table.addr, align 8
  %this1 = load ptr, ptr %this.addr, align 8
  store ptr getelementptr inbounds ({ [9 x ptr] }, ptr @_ZTVN7datalog10table_base13row_interfaceE, i32 0, i32 0, i32 2), ptr %this1, align 8
  %m_parent_table = getelementptr inbounds %"class.datalog::table_base::row_interface", ptr %this1, i32 0, i32 1
  %0 = load ptr, ptr %parent_table.addr, align 8
  store ptr %0, ptr %m_parent_table, align 8
  ret void
}

; Function Attrs: mustprogress uwtable
define linkonce_odr hidden void @_ZN14core_hashtableI18default_hash_entryI7svectorImjEEN7datalog17svector_hash_procI11uint64_hashEENS4_14vector_eq_procIS2_EEE8iteratorC2EPS3_SC_(ptr noundef nonnull align 8 dereferenceable(16) %this, ptr noundef %start, ptr noundef %end) unnamed_addr #4 comdat align 2 {
entry:
  %this.addr = alloca ptr, align 8
  %start.addr = alloca ptr, align 8
  %end.addr = alloca ptr, align 8
  store ptr %this, ptr %this.addr, align 8
  store ptr %start, ptr %start.addr, align 8
  store ptr %end, ptr %end.addr, align 8
  %this1 = load ptr, ptr %this.addr, align 8
  %m_curr = getelementptr inbounds %"class.core_hashtable<default_hash_entry<svector<unsigned long>>, datalog::svector_hash_proc<uint64_hash>, datalog::vector_eq_proc<svector<unsigned long>>>::iterator", ptr %this1, i32 0, i32 0
  %0 = load ptr, ptr %start.addr, align 8
  store ptr %0, ptr %m_curr, align 8
  %m_end = getelementptr inbounds %"class.core_hashtable<default_hash_entry<svector<unsigned long>>, datalog::svector_hash_proc<uint64_hash>, datalog::vector_eq_proc<svector<unsigned long>>>::iterator", ptr %this1, i32 0, i32 1
  %1 = load ptr, ptr %end.addr, align 8
  store ptr %1, ptr %m_end, align 8
  call void @_ZN14core_hashtableI18default_hash_entryI7svectorImjEEN7datalog17svector_hash_procI11uint64_hashEENS4_14vector_eq_procIS2_EEE8iterator12move_to_usedEv(ptr noundef nonnull align 8 dereferenceable(16) %this1)
  ret void
}

; Function Attrs: mustprogress uwtable
define linkonce_odr hidden void @_ZN7datalog10table_base8iteratorC2EPNS0_13iterator_coreE(ptr noundef nonnull align 8 dereferenceable(8) %this, ptr noundef %core) unnamed_addr #4 comdat align 2 {
entry:
  %this.addr = alloca ptr, align 8
  %core.addr = alloca ptr, align 8
  store ptr %this, ptr %this.addr, align 8
  store ptr %core, ptr %core.addr, align 8
  %this1 = load ptr, ptr %this.addr, align 8
  %m_core = getelementptr inbounds %"class.datalog::table_base::iterator", ptr %this1, i32 0, i32 0
  %0 = load ptr, ptr %core.addr, align 8
  call void @_ZN3refIN7datalog10table_base13iterator_coreEEC2EPS2_(ptr noundef nonnull align 8 dereferenceable(8) %m_core, ptr noundef %0)
  ret void
}

; Function Attrs: mustprogress nounwind uwtable
define linkonce_odr hidden void @_ZN7datalog10table_base13iterator_coreD2Ev(ptr noundef nonnull align 8 dereferenceable(12) %this) unnamed_addr #5 comdat align 2 {
entry:
  %this.addr = alloca ptr, align 8
  store ptr %this, ptr %this.addr, align 8
  ret void
}

; Function Attrs: mustprogress uwtable
define linkonce_odr hidden void @_ZN7datalog15hashtable_table17our_iterator_core7our_rowC2ERKS1_(ptr noundef nonnull align 8 dereferenceable(24) %this, ptr noundef nonnull align 8 dereferenceable(80) %parent) unnamed_addr #4 comdat align 2 {
entry:
  %this.addr = alloca ptr, align 8
  %parent.addr = alloca ptr, align 8
  store ptr %this, ptr %this.addr, align 8
  store ptr %parent, ptr %parent.addr, align 8
  %this1 = load ptr, ptr %this.addr, align 8
  %0 = load ptr, ptr %parent.addr, align 8
  %m_parent = getelementptr inbounds %"class.datalog::hashtable_table::our_iterator_core", ptr %0, i32 0, i32 1
  %1 = load ptr, ptr %m_parent, align 8
  call void @_ZN7datalog10table_base13row_interfaceC2ERKS0_(ptr noundef nonnull align 8 dereferenceable(16) %this1, ptr noundef nonnull align 8 dereferenceable(36) %1)
  store ptr getelementptr inbounds ({ [9 x ptr] }, ptr @_ZTVN7datalog15hashtable_table17our_iterator_core7our_rowE, i32 0, i32 0, i32 2), ptr %this1, align 8
  %m_parent2 = getelementptr inbounds %"class.datalog::hashtable_table::our_iterator_core::our_row", ptr %this1, i32 0, i32 1
  %2 = load ptr, ptr %parent.addr, align 8
  store ptr %2, ptr %m_parent2, align 8
  ret void
}

; Function Attrs: mustprogress uwtable
define linkonce_odr hidden { ptr, ptr } @_ZNK14core_hashtableI18default_hash_entryI7svectorImjEEN7datalog17svector_hash_procI11uint64_hashEENS4_14vector_eq_procIS2_EEE5beginEv(ptr noundef nonnull align 8 dereferenceable(20) %this) #4 comdat align 2 {
entry:
  %retval = alloca %"class.core_hashtable<default_hash_entry<svector<unsigned long>>, datalog::svector_hash_proc<uint64_hash>, datalog::vector_eq_proc<svector<unsigned long>>>::iterator", align 8
  %this.addr = alloca ptr, align 8
  store ptr %this, ptr %this.addr, align 8
  %this1 = load ptr, ptr %this.addr, align 8
  %m_table = getelementptr inbounds %class.core_hashtable, ptr %this1, i32 0, i32 0
  %0 = load ptr, ptr %m_table, align 8
  %m_table2 = getelementptr inbounds %class.core_hashtable, ptr %this1, i32 0, i32 0
  %1 = load ptr, ptr %m_table2, align 8
  %m_capacity = getelementptr inbounds %class.core_hashtable, ptr %this1, i32 0, i32 1
  %2 = load i32, ptr %m_capacity, align 8
  %idx.ext = zext i32 %2 to i64
  %add.ptr = getelementptr inbounds %class.default_hash_entry, ptr %1, i64 %idx.ext
  call void @_ZN14core_hashtableI18default_hash_entryI7svectorImjEEN7datalog17svector_hash_procI11uint64_hashEENS4_14vector_eq_procIS2_EEE8iteratorC2EPS3_SC_(ptr noundef nonnull align 8 dereferenceable(16) %retval, ptr noundef %0, ptr noundef %add.ptr)
  %3 = load { ptr, ptr }, ptr %retval, align 8
  ret { ptr, ptr } %3
}

; Function Attrs: mustprogress uwtable
define linkonce_odr hidden { ptr, ptr } @_ZNK14core_hashtableI18default_hash_entryI7svectorImjEEN7datalog17svector_hash_procI11uint64_hashEENS4_14vector_eq_procIS2_EEE3endEv(ptr noundef nonnull align 8 dereferenceable(20) %this) #4 comdat align 2 {
entry:
  %retval = alloca %"class.core_hashtable<default_hash_entry<svector<unsigned long>>, datalog::svector_hash_proc<uint64_hash>, datalog::vector_eq_proc<svector<unsigned long>>>::iterator", align 8
  %this.addr = alloca ptr, align 8
  store ptr %this, ptr %this.addr, align 8
  %this1 = load ptr, ptr %this.addr, align 8
  %m_table = getelementptr inbounds %class.core_hashtable, ptr %this1, i32 0, i32 0
  %0 = load ptr, ptr %m_table, align 8
  %m_capacity = getelementptr inbounds %class.core_hashtable, ptr %this1, i32 0, i32 1
  %1 = load i32, ptr %m_capacity, align 8
  %idx.ext = zext i32 %1 to i64
  %add.ptr = getelementptr inbounds %class.default_hash_entry, ptr %0, i64 %idx.ext
  %m_table2 = getelementptr inbounds %class.core_hashtable, ptr %this1, i32 0, i32 0
  %2 = load ptr, ptr %m_table2, align 8
  %m_capacity3 = getelementptr inbounds %class.core_hashtable, ptr %this1, i32 0, i32 1
  %3 = load i32, ptr %m_capacity3, align 8
  %idx.ext4 = zext i32 %3 to i64
  %add.ptr5 = getelementptr inbounds %class.default_hash_entry, ptr %2, i64 %idx.ext4
  call void @_ZN14core_hashtableI18default_hash_entryI7svectorImjEEN7datalog17svector_hash_procI11uint64_hashEENS4_14vector_eq_procIS2_EEE8iteratorC2EPS3_SC_(ptr noundef nonnull align 8 dereferenceable(16) %retval, ptr noundef %add.ptr, ptr noundef %add.ptr5)
  %4 = load { ptr, ptr }, ptr %retval, align 8
  ret { ptr, ptr } %4
}

; Function Attrs: mustprogress nounwind uwtable
define linkonce_odr hidden void @_ZN7datalog10table_base13iterator_coreC2Ev(ptr noundef nonnull align 8 dereferenceable(12) %this) unnamed_addr #5 comdat align 2 {
entry:
  %this.addr = alloca ptr, align 8
  store ptr %this, ptr %this.addr, align 8
  %this1 = load ptr, ptr %this.addr, align 8
  store ptr getelementptr inbounds ({ [8 x ptr] }, ptr @_ZTVN7datalog10table_base13iterator_coreE, i32 0, i32 0, i32 2), ptr %this1, align 8
  %m_ref_cnt = getelementptr inbounds %"class.datalog::table_base::iterator_core", ptr %this1, i32 0, i32 1
  store i32 0, ptr %m_ref_cnt, align 8
  ret void
}

; Function Attrs: mustprogress uwtable
define linkonce_odr hidden void @_ZN7datalog10table_base11mk_iteratorEPNS0_13iterator_coreE(ptr noalias sret(%"class.datalog::table_base::iterator") align 8 %agg.result, ptr noundef %core) #4 comdat align 2 {
entry:
  %result.ptr = alloca ptr, align 8
  %core.addr = alloca ptr, align 8
  store ptr %agg.result, ptr %result.ptr, align 8
  store ptr %core, ptr %core.addr, align 8
  %0 = load ptr, ptr %core.addr, align 8
  call void @_ZN7datalog10table_base8iteratorC2EPNS0_13iterator_coreE(ptr noundef nonnull align 8 dereferenceable(8) %agg.result, ptr noundef %0)
  ret void
}

; Function Attrs: mustprogress uwtable
define linkonce_odr hidden void @_ZN7datalog15hashtable_table17our_iterator_coreC2ERKS0_b(ptr noundef nonnull align 8 dereferenceable(80) %this, ptr noundef nonnull align 8 dereferenceable(64) %t, i1 noundef zeroext %finished) unnamed_addr #4 comdat align 2 personality ptr @__gxx_personality_v0 {
entry:
  %this.addr = alloca ptr, align 8
  %t.addr = alloca ptr, align 8
  %finished.addr = alloca i8, align 1
  %exn.slot = alloca ptr, align 8
  %ehselector.slot = alloca i32, align 4
  store ptr %this, ptr %this.addr, align 8
  store ptr %t, ptr %t.addr, align 8
  %frombool = zext i1 %finished to i8
  store i8 %frombool, ptr %finished.addr, align 1
  %this1 = load ptr, ptr %this.addr, align 8
  call void @_ZN7datalog10table_base13iterator_coreC2Ev(ptr noundef nonnull align 8 dereferenceable(12) %this1)
  store ptr getelementptr inbounds ({ [8 x ptr] }, ptr @_ZTVN7datalog15hashtable_table17our_iterator_coreE, i32 0, i32 0, i32 2), ptr %this1, align 8
  %m_parent = getelementptr inbounds %"class.datalog::hashtable_table::our_iterator_core", ptr %this1, i32 0, i32 1
  %0 = load ptr, ptr %t.addr, align 8
  store ptr %0, ptr %m_parent, align 8
  %m_inner = getelementptr inbounds %"class.datalog::hashtable_table::our_iterator_core", ptr %this1, i32 0, i32 2
  %1 = load i8, ptr %finished.addr, align 1
  %tobool = trunc i8 %1 to i1
  br i1 %tobool, label %cond.true, label %cond.false

cond.true:                                        ; preds = %entry
  %2 = load ptr, ptr %t.addr, align 8
  %m_data = getelementptr inbounds %"class.datalog::hashtable_table", ptr %2, i32 0, i32 2
  %call = invoke { ptr, ptr } @_ZNK14core_hashtableI18default_hash_entryI7svectorImjEEN7datalog17svector_hash_procI11uint64_hashEENS4_14vector_eq_procIS2_EEE3endEv(ptr noundef nonnull align 8 dereferenceable(20) %m_data)
          to label %invoke.cont unwind label %lpad

invoke.cont:                                      ; preds = %cond.true
  %3 = getelementptr inbounds { ptr, ptr }, ptr %m_inner, i32 0, i32 0
  %4 = extractvalue { ptr, ptr } %call, 0
  store ptr %4, ptr %3, align 8
  %5 = getelementptr inbounds { ptr, ptr }, ptr %m_inner, i32 0, i32 1
  %6 = extractvalue { ptr, ptr } %call, 1
  store ptr %6, ptr %5, align 8
  br label %cond.end

cond.false:                                       ; preds = %entry
  %7 = load ptr, ptr %t.addr, align 8
  %m_data2 = getelementptr inbounds %"class.datalog::hashtable_table", ptr %7, i32 0, i32 2
  %call4 = invoke { ptr, ptr } @_ZNK14core_hashtableI18default_hash_entryI7svectorImjEEN7datalog17svector_hash_procI11uint64_hashEENS4_14vector_eq_procIS2_EEE5beginEv(ptr noundef nonnull align 8 dereferenceable(20) %m_data2)
          to label %invoke.cont3 unwind label %lpad

invoke.cont3:                                     ; preds = %cond.false
  %8 = getelementptr inbounds { ptr, ptr }, ptr %m_inner, i32 0, i32 0
  %9 = extractvalue { ptr, ptr } %call4, 0
  store ptr %9, ptr %8, align 8
  %10 = getelementptr inbounds { ptr, ptr }, ptr %m_inner, i32 0, i32 1
  %11 = extractvalue { ptr, ptr } %call4, 1
  store ptr %11, ptr %10, align 8
  br label %cond.end

cond.end:                                         ; preds = %invoke.cont3, %invoke.cont
  %m_end = getelementptr inbounds %"class.datalog::hashtable_table::our_iterator_core", ptr %this1, i32 0, i32 3
  %12 = load ptr, ptr %t.addr, align 8
  %m_data5 = getelementptr inbounds %"class.datalog::hashtable_table", ptr %12, i32 0, i32 2
  %call7 = invoke { ptr, ptr } @_ZNK14core_hashtableI18default_hash_entryI7svectorImjEEN7datalog17svector_hash_procI11uint64_hashEENS4_14vector_eq_procIS2_EEE3endEv(ptr noundef nonnull align 8 dereferenceable(20) %m_data5)
          to label %invoke.cont6 unwind label %lpad

invoke.cont6:                                     ; preds = %cond.end
  %13 = getelementptr inbounds { ptr, ptr }, ptr %m_end, i32 0, i32 0
  %14 = extractvalue { ptr, ptr } %call7, 0
  store ptr %14, ptr %13, align 8
  %15 = getelementptr inbounds { ptr, ptr }, ptr %m_end, i32 0, i32 1
  %16 = extractvalue { ptr, ptr } %call7, 1
  store ptr %16, ptr %15, align 8
  %m_row_obj = getelementptr inbounds %"class.datalog::hashtable_table::our_iterator_core", ptr %this1, i32 0, i32 4
  invoke void @_ZN7datalog15hashtable_table17our_iterator_core7our_rowC2ERKS1_(ptr noundef nonnull align 8 dereferenceable(24) %m_row_obj, ptr noundef nonnull align 8 dereferenceable(80) %this1)
          to label %invoke.cont8 unwind label %lpad

invoke.cont8:                                     ; preds = %invoke.cont6
  ret void

lpad:                                             ; preds = %invoke.cont6, %cond.end, %cond.false, %cond.true
  %17 = landingpad { ptr, i32 }
          cleanup
  %18 = extractvalue { ptr, i32 } %17, 0
  store ptr %18, ptr %exn.slot, align 8
  %19 = extractvalue { ptr, i32 } %17, 1
  store i32 %19, ptr %ehselector.slot, align 4
  call void @_ZN7datalog10table_base13iterator_coreD2Ev(ptr noundef nonnull align 8 dereferenceable(12) %this1) #3
  br label %eh.resume

eh.resume:                                        ; preds = %lpad
  %exn = load ptr, ptr %exn.slot, align 8
  %sel = load i32, ptr %ehselector.slot, align 4
  %lpad.val = insertvalue { ptr, i32 } poison, ptr %exn, 0
  %lpad.val9 = insertvalue { ptr, i32 } %lpad.val, i32 %sel, 1
  resume { ptr, i32 } %lpad.val9
}

; Function Attrs: mustprogress uwtable
define hidden void @_ZNK7datalog15hashtable_table3endEv(ptr noalias sret(%"class.datalog::table_base::iterator") align 8 %agg.result, ptr noundef nonnull align 8 dereferenceable(64) %this) unnamed_addr #4 align 2 {
entry:
  %result.ptr = alloca ptr, align 8
  %this.addr = alloca ptr, align 8
  store ptr %agg.result, ptr %result.ptr, align 8
  store ptr %this, ptr %this.addr, align 8
  %this1 = load ptr, ptr %this.addr, align 8
  %call = call noalias noundef ptr @_ZN6memory8allocateEm(i64 noundef 80)
  call void @_ZN7datalog15hashtable_table17our_iterator_coreC2ERKS0_b(ptr noundef nonnull align 8 dereferenceable(80) %call, ptr noundef nonnull align 8 dereferenceable(64) %this1, i1 noundef zeroext true)
  call void @_ZN7datalog10table_base11mk_iteratorEPNS0_13iterator_coreE(ptr sret(%"class.datalog::table_base::iterator") align 8 %agg.result, ptr noundef %call)
  ret void
}