; Function Attrs: mustprogress uwtable
define hidden void @_ZNK7datalog15hashtable_table3endEv(ptr noalias nocapture writeonly sret(%"class.datalog::table_base::iterator") align 8 %agg.result, ptr noundef nonnull align 8 dereferenceable(64) %this) unnamed_addr #3 align 2 personality ptr @__gxx_personality_v0 {
_ZN7datalog10table_base11mk_iteratorEPNS0_13iterator_coreE.exit:
  %call = tail call noalias noundef ptr @_ZN6memory8allocateEm(i64 noundef 80)
  %m_ref_cnt.i.i = getelementptr inbounds i8, ptr %call, i64 8
  store ptr getelementptr inbounds ({ [8 x ptr] }, ptr @_ZTVN7datalog15hashtable_table17our_iterator_coreE, i64 0, i32 0, i64 2), ptr %call, align 8
  %m_parent.i = getelementptr inbounds i8, ptr %call, i64 16
  store ptr %this, ptr %m_parent.i, align 8
  %m_data.i = getelementptr inbounds i8, ptr %this, i64 40
  %0 = load ptr, ptr %m_data.i, align 8
  %m_capacity.i.i = getelementptr inbounds i8, ptr %this, i64 48
  %1 = load i32, ptr %m_capacity.i.i, align 8
  %idx.ext.i.i = zext i32 %1 to i64
  %add.ptr.i.i = getelementptr inbounds %class.default_hash_entry, ptr %0, i64 %idx.ext.i.i
  %m_inner.i = getelementptr inbounds i8, ptr %call, i64 24
  store ptr %add.ptr.i.i, ptr %m_inner.i, align 8
  %2 = getelementptr inbounds i8, ptr %call, i64 32
  store ptr %add.ptr.i.i, ptr %2, align 8
  %m_end.i = getelementptr inbounds i8, ptr %call, i64 40
  store ptr %add.ptr.i.i, ptr %m_end.i, align 8
  %3 = getelementptr inbounds i8, ptr %call, i64 48
  store ptr %add.ptr.i.i, ptr %3, align 8
  %m_row_obj.i = getelementptr inbounds i8, ptr %call, i64 56
  %m_parent_table.i.i.i = getelementptr inbounds i8, ptr %call, i64 64
  store ptr %this, ptr %m_parent_table.i.i.i, align 8
  store ptr getelementptr inbounds ({ [9 x ptr] }, ptr @_ZTVN7datalog15hashtable_table17our_iterator_core7our_rowE, i64 0, i32 0, i64 2), ptr %m_row_obj.i, align 8
  %m_parent2.i.i = getelementptr inbounds i8, ptr %call, i64 72
  store ptr %call, ptr %m_parent2.i.i, align 8
  tail call void @llvm.experimental.noalias.scope.decl(metadata !9)
  store ptr %call, ptr %agg.result, align 8, !alias.scope !9
  store i32 1, ptr %m_ref_cnt.i.i, align 8, !noalias !9
  ret void
}